; Function Attrs: mustprogress nofree norecurse nosync nounwind willreturn memory(argmem: write) uwtable
define internal void @_ZN7rocksdb12_GLOBAL__N_110NoopCreateERKNS_5SliceENS_15CompressionTypeENS_9CacheTierEPNS_5Cache13CreateContextEPNS_15MemoryAllocatorEPPvPm(ptr dead_on_unwind noalias writable writeonly sret(%"class.rocksdb::Status") align 8 captures(none) initializes((0, 6), (8, 16)) %0, ptr nonnull readnone align 8 captures(none) %1, i8 zeroext %2, i8 zeroext %3, ptr readnone captures(none) %4, ptr readnone captures(none) %5, ptr readnone captures(none) %6, ptr readnone captures(none) %7) #7 personality ptr @__gxx_personality_v0 {
  store i8 3, ptr %0, align 8, !tbaa !54, !alias.scope !65
  %9 = getelementptr inbounds nuw i8, ptr %0, i64 1
  store i8 0, ptr %9, align 1, !tbaa !68, !alias.scope !65
  %10 = getelementptr inbounds nuw i8, ptr %0, i64 2
  %11 = getelementptr inbounds nuw i8, ptr %0, i64 8
  store ptr null, ptr %11, align 8, !tbaa !49, !alias.scope !65
  store i32 0, ptr %10, align 2, !alias.scope !65
  ret void
}